target datalayout = "e-m:e-p270:32:32-p271:32:32-p272:64:64-i64:64-i128:128-f80:128-n8:16:32:64-S128"
target triple = "x86_64-pc-linux-gnu"

%struct.ident_t = type { i32, i32, i32, i32, ptr }
%"struct.std::_Vector_base.12" = type { %"struct.std::_Vector_base<float, std::allocator<float>>::_Vector_impl" }
%"struct.std::_Vector_base<float, std::allocator<float>>::_Vector_impl" = type { %"struct.std::_Vector_base<float, std::allocator<float>>::_Vector_impl_data" }
%"struct.std::_Vector_base<float, std::allocator<float>>::_Vector_impl_data" = type { ptr, ptr, ptr }
%"struct.faiss::Quantizer" = type { ptr, i64, i64 }

@1 = private unnamed_addr constant %struct.ident_t { i32 0, i32 514, i32 0, i32 22, ptr @0 }, align 8

; Function Attrs: mustprogress nounwind uwtable
define linkonce_odr noundef nonnull align 4 dereferenceable(4) ptr @_ZNSt6vectorIfSaIfEEixEm(ptr noundef nonnull align 8 dereferenceable(24) %0, i64 noundef %1) #0 comdat align 2 {
  %3 = alloca ptr, align 8
  %4 = alloca i64, align 8
  store ptr %0, ptr %3, align 8
  store i64 %1, ptr %4, align 8
  %5 = load ptr, ptr %3, align 8
  %6 = getelementptr inbounds %"struct.std::_Vector_base.12", ptr %5, i32 0, i32 0
  %7 = getelementptr inbounds %"struct.std::_Vector_base<float, std::allocator<float>>::_Vector_impl_data", ptr %6, i32 0, i32 0
  %8 = load ptr, ptr %7, align 8
  %9 = load i64, ptr %4, align 8
  %10 = getelementptr inbounds float, ptr %8, i64 %9
  ret ptr %10
}

; Function Attrs: norecurse nounwind uwtable
define internal void @_ZN5faiss20LocalSearchQuantizer5trainEmPKf.omp_outlined(ptr noalias noundef %0, ptr noalias noundef %1, ptr noundef %2, ptr noundef nonnull align 8 dereferenceable(8) %3, ptr noundef nonnull align 8 dereferenceable(8) %4, ptr noundef nonnull align 8 dereferenceable(24) %5) #11 {
  %7 = alloca ptr, align 8
  %8 = alloca ptr, align 8
  %9 = alloca ptr, align 8
  %10 = alloca ptr, align 8
  %11 = alloca ptr, align 8
  %12 = alloca ptr, align 8
  %13 = alloca i64, align 8
  %14 = alloca i64, align 8
  %15 = alloca i64, align 8
  %16 = alloca i64, align 8
  %17 = alloca i64, align 8
  %18 = alloca i64, align 8
  %19 = alloca i64, align 8
  %20 = alloca i32, align 4
  %21 = alloca i64, align 8
  %22 = alloca float, align 4
  %23 = alloca i64, align 8
  %24 = alloca float, align 4
  %25 = alloca i64, align 8
  %26 = alloca float, align 4
  store ptr %0, ptr %7, align 8
  store ptr %1, ptr %8, align 8
  store ptr %2, ptr %9, align 8
  store ptr %3, ptr %10, align 8
  store ptr %4, ptr %11, align 8
  store ptr %5, ptr %12, align 8
  %27 = load ptr, ptr %9, align 8
  %28 = load ptr, ptr %10, align 8
  %29 = load ptr, ptr %11, align 8
  %30 = load ptr, ptr %12, align 8
  %31 = getelementptr inbounds %"struct.faiss::Quantizer", ptr %27, i32 0, i32 1
  %32 = load i64, ptr %31, align 8
  store i64 %32, ptr %14, align 8
  %33 = load i64, ptr %14, align 8
  %34 = sub i64 %33, 0
  %35 = udiv i64 %34, 1
  %36 = sub i64 %35, 1
  store i64 %36, ptr %15, align 8
  store i64 0, ptr %16, align 8
  %37 = load i64, ptr %14, align 8
  %38 = icmp ult i64 0, %37
  br i1 %38, label %39, label %125

39:                                               ; preds = %6
  store i64 0, ptr %17, align 8
  %40 = load i64, ptr %15, align 8
  store i64 %40, ptr %18, align 8
  store i64 1, ptr %19, align 8
  store i32 0, ptr %20, align 4
  %41 = load ptr, ptr %7, align 8
  %42 = load i32, ptr %41, align 4
  call void @__kmpc_for_static_init_8u(ptr @1, i32 %42, i32 34, ptr %20, ptr %17, ptr %18, ptr %19, i64 1, i64 1)
  %43 = load i64, ptr %18, align 8
  %44 = load i64, ptr %15, align 8
  %45 = icmp ugt i64 %43, %44
  br i1 %45, label %46, label %48

46:                                               ; preds = %39
  %47 = load i64, ptr %15, align 8
  br label %50

48:                                               ; preds = %39
  %49 = load i64, ptr %18, align 8
  br label %50

50:                                               ; preds = %48, %46
  %51 = phi i64 [ %47, %46 ], [ %49, %48 ]
  store i64 %51, ptr %18, align 8
  %52 = load i64, ptr %17, align 8
  store i64 %52, ptr %13, align 8
  br label %53

53:                                               ; preds = %118, %50
  %54 = load i64, ptr %13, align 8
  %55 = load i64, ptr %18, align 8
  %56 = add i64 %55, 1
  %57 = icmp ult i64 %54, %56
  br i1 %57, label %58, label %121

58:                                               ; preds = %53
  %59 = load i64, ptr %13, align 8
  %60 = mul i64 %59, 1
  %61 = add i64 0, %60
  store i64 %61, ptr %21, align 8
  store float 0.000000e+00, ptr %22, align 4
  store i64 0, ptr %23, align 8
  br label %62

62:                                               ; preds = %78, %58
  %63 = load i64, ptr %23, align 8
  %64 = load i64, ptr %28, align 8
  %65 = icmp ult i64 %63, %64
  br i1 %65, label %66, label %81

66:                                               ; preds = %62
  %67 = load ptr, ptr %29, align 8
  %68 = load i64, ptr %23, align 8
  %69 = getelementptr inbounds %"struct.faiss::Quantizer", ptr %27, i32 0, i32 1
  %70 = load i64, ptr %69, align 8
  %71 = mul i64 %68, %70
  %72 = load i64, ptr %21, align 8
  %73 = add i64 %71, %72
  %74 = getelementptr inbounds float, ptr %67, i64 %73
  %75 = load float, ptr %74, align 4
  %76 = load float, ptr %22, align 4
  %77 = fadd float %76, %75
  store float %77, ptr %22, align 4
  br label %78

78:                                               ; preds = %66
  %79 = load i64, ptr %23, align 8
  %80 = add i64 %79, 1
  store i64 %80, ptr %23, align 8
  br label %62, !llvm.loop !10

81:                                               ; preds = %62
  %82 = load float, ptr %22, align 4
  %83 = load i64, ptr %28, align 8
  %84 = uitofp i64 %83 to float
  %85 = fdiv float %82, %84
  store float %85, ptr %22, align 4
  store float 0.000000e+00, ptr %24, align 4
  store i64 0, ptr %25, align 8
  br label %86

86:                                               ; preds = %106, %81
  %87 = load i64, ptr %25, align 8
  %88 = load i64, ptr %28, align 8
  %89 = icmp ult i64 %87, %88
  br i1 %89, label %90, label %109

90:                                               ; preds = %86
  %91 = load ptr, ptr %29, align 8
  %92 = load i64, ptr %25, align 8
  %93 = getelementptr inbounds %"struct.faiss::Quantizer", ptr %27, i32 0, i32 1
  %94 = load i64, ptr %93, align 8
  %95 = mul i64 %92, %94
  %96 = load i64, ptr %21, align 8
  %97 = add i64 %95, %96
  %98 = getelementptr inbounds float, ptr %91, i64 %97
  %99 = load float, ptr %98, align 4
  %100 = load float, ptr %22, align 4
  %101 = fsub float %99, %100
  store float %101, ptr %26, align 4
  %102 = load float, ptr %26, align 4
  %103 = load float, ptr %26, align 4
  %104 = load float, ptr %24, align 4
  %105 = call float @llvm.fmuladd.f32(float %102, float %103, float %104)
  store float %105, ptr %24, align 4
  br label %106

106:                                              ; preds = %90
  %107 = load i64, ptr %25, align 8
  %108 = add i64 %107, 1
  store i64 %108, ptr %25, align 8
  br label %86, !llvm.loop !11

109:                                              ; preds = %86
  %110 = load float, ptr %24, align 4
  %111 = load i64, ptr %28, align 8
  %112 = uitofp i64 %111 to float
  %113 = fdiv float %110, %112
  %114 = call float @sqrtf(float noundef %113) #4
  %115 = load i64, ptr %21, align 8
  %116 = call noundef nonnull align 4 dereferenceable(4) ptr @_ZNSt6vectorIfSaIfEEixEm(ptr noundef nonnull align 8 dereferenceable(24) %30, i64 noundef %115) #4
  store float %114, ptr %116, align 4
  br label %117

117:                                              ; preds = %109
  br label %118

118:                                              ; preds = %117
  %119 = load i64, ptr %13, align 8
  %120 = add i64 %119, 1
  store i64 %120, ptr %13, align 8
  br label %53

121:                                              ; preds = %53
  br label %122

122:                                              ; preds = %121
  %123 = load ptr, ptr %7, align 8
  %124 = load i32, ptr %123, align 4
  call void @__kmpc_for_static_fini(ptr @1, i32 %124)
  br label %125

125:                                              ; preds = %122, %6
  ret void
}