; Function Attrs: norecurse nounwind uwtable
define internal void @_ZN5faiss20LocalSearchQuantizer5trainEmPKf.omp_outlined(ptr noalias nocapture noundef readonly %0, ptr noalias nocapture readnone %1, ptr nocapture noundef readonly %2, ptr nocapture noundef nonnull readonly align 8 dereferenceable(8) %3, ptr nocapture noundef nonnull readonly align 8 dereferenceable(8) %4, ptr nocapture noundef nonnull readonly align 8 dereferenceable(24) %5) #11 {
  %7 = alloca i64, align 8
  %8 = alloca i64, align 8
  %9 = alloca i64, align 8
  %10 = alloca i32, align 4
  %11 = getelementptr inbounds i8, ptr %2, i64 8
  %12 = load i64, ptr %11, align 8
  %.not = icmp eq i64 %12, 0
  br i1 %.not, label %47, label %13

13:                                               ; preds = %6
  %14 = add i64 %12, -1
  store i64 0, ptr %7, align 8
  store i64 %14, ptr %8, align 8
  store i64 1, ptr %9, align 8
  store i32 0, ptr %10, align 4
  %15 = load i32, ptr %0, align 4
  call void @__kmpc_for_static_init_8u(ptr nonnull @1, i32 %15, i32 34, ptr nonnull %10, ptr nonnull %7, ptr nonnull %8, ptr nonnull %9, i64 1, i64 1)
  %16 = load i64, ptr %8, align 8
  %17 = call i64 @llvm.umin.i64(i64 %16, i64 %14)
  store i64 %17, ptr %8, align 8
  %18 = load i64, ptr %7, align 8
  %.not54 = icmp ugt i64 %18, %17
  br i1 %.not54, label %._crit_edge47, label %.preheader

.preheader:                                       ; preds = %13, %._crit_edge42
  %.046 = phi i64 [ %43, %._crit_edge42 ], [ %18, %13 ]
  %19 = load i64, ptr %3, align 8
  %.not48 = icmp eq i64 %19, 0
  br i1 %.not48, label %._crit_edge.thread, label %.lr.ph

._crit_edge.thread:                               ; preds = %.preheader
  %20 = uitofp i64 %19 to float
  br label %._crit_edge42

.lr.ph:                                           ; preds = %.preheader
  %21 = load ptr, ptr %4, align 8
  %22 = load i64, ptr %11, align 8
  %invariant.gep = getelementptr float, ptr %21, i64 %.046
  br label %23

23:                                               ; preds = %.lr.ph, %23
  %.03136 = phi i64 [ 0, %.lr.ph ], [ %27, %23 ]
  %.03235 = phi float [ 0.000000e+00, %.lr.ph ], [ %26, %23 ]
  %24 = mul i64 %22, %.03136
  %gep = getelementptr float, ptr %invariant.gep, i64 %24
  %25 = load float, ptr %gep, align 4
  %26 = fadd float %.03235, %25
  %27 = add nuw i64 %.03136, 1
  %exitcond.not = icmp eq i64 %27, %19
  br i1 %exitcond.not, label %.lr.ph41, label %23, !llvm.loop !11

.lr.ph41:                                         ; preds = %23
  %28 = uitofp i64 %19 to float
  %29 = fdiv float %26, %28
  %30 = load ptr, ptr %4, align 8
  %31 = load i64, ptr %11, align 8
  %invariant.gep44 = getelementptr float, ptr %30, i64 %.046
  br label %32

32:                                               ; preds = %.lr.ph41, %32
  %.02939 = phi i64 [ 0, %.lr.ph41 ], [ %37, %32 ]
  %.03038 = phi float [ 0.000000e+00, %.lr.ph41 ], [ %36, %32 ]
  %33 = mul i64 %31, %.02939
  %gep45 = getelementptr float, ptr %invariant.gep44, i64 %33
  %34 = load float, ptr %gep45, align 4
  %35 = fsub float %34, %29
  %36 = call float @llvm.fmuladd.f32(float %35, float %35, float %.03038)
  %37 = add nuw i64 %.02939, 1
  %exitcond51.not = icmp eq i64 %37, %19
  br i1 %exitcond51.not, label %._crit_edge42, label %32, !llvm.loop !12

._crit_edge42:                                    ; preds = %32, %._crit_edge.thread
  %38 = phi float [ %20, %._crit_edge.thread ], [ %28, %32 ]
  %.030.lcssa = phi float [ 0.000000e+00, %._crit_edge.thread ], [ %36, %32 ]
  %39 = fdiv float %.030.lcssa, %38
  %40 = call float @sqrtf(float noundef %39) #12
  %41 = load ptr, ptr %5, align 8
  %42 = getelementptr inbounds float, ptr %41, i64 %.046
  store float %40, ptr %42, align 4
  %43 = add nuw i64 %.046, 1
  %44 = load i64, ptr %8, align 8
  %45 = add i64 %44, 1
  %46 = icmp ult i64 %43, %45
  br i1 %46, label %.preheader, label %._crit_edge47

._crit_edge47:                                    ; preds = %._crit_edge42, %13
  call void @__kmpc_for_static_fini(ptr nonnull @1, i32 %15)
  br label %47

47:                                               ; preds = %._crit_edge47, %6
  ret void
}